; ModuleID = 'source-C-CXX/36/910.c'
source_filename = "source-C-CXX/36/910.c"
target datalayout = "e-m:e-p270:32:32-p271:32:32-p272:64:64-i64:64-f80:128-n8:16:32:64-S128"
target triple = "x86_64-pc-linux-gnu"

%struct._IO_FILE = type { i32, i8*, i8*, i8*, i8*, i8*, i8*, i8*, i8*, i8*, i8*, i8*, %struct._IO_marker*, %struct._IO_FILE*, i32, i32, i64, i16, i8, [1 x i8], i8*, i64, %struct._IO_codecvt*, %struct._IO_wide_data*, %struct._IO_FILE*, i8*, i64, i32, [20 x i8] }
%struct._IO_marker = type opaque
%struct._IO_codecvt = type opaque
%struct._IO_wide_data = type opaque

@.str = private unnamed_addr constant [3 x i8] c"%d\00", align 1
@.str.1 = private unnamed_addr constant [3 x i8] c"%s\00", align 1
@.str.2 = private unnamed_addr constant [4 x i8] c"%c\0A\00", align 1
@.str.3 = private unnamed_addr constant [3 x i8] c"no\00", align 1
@stdin = external local_unnamed_addr global %struct._IO_FILE*, align 8

; Function Attrs: nofree nounwind sspstrong uwtable
define dso_local i32 @main() local_unnamed_addr #0 {
  %1 = alloca i32, align 4
  %2 = alloca [100000 x i8], align 16
  %3 = bitcast i32* %1 to i8*
  call void @llvm.lifetime.start.p0i8(i64 4, i8* nonnull %3) #3
  %4 = call i32 (i8*, ...) @__isoc99_scanf(i8* getelementptr inbounds ([3 x i8], [3 x i8]* @.str, i64 0, i64 0), i32* nonnull %1)
  %5 = getelementptr inbounds [100000 x i8], [100000 x i8]* %2, i64 0, i64 0
  call void @llvm.lifetime.start.p0i8(i64 100000, i8* nonnull %5) #3
  %6 = load i32, i32* %1, align 4, !tbaa !5
  %7 = icmp slt i32 %6, 1
  br i1 %7, label %55, label %8

8:                                                ; preds = %0, %51
  %9 = phi i32 [ %52, %51 ], [ 1, %0 ]
  %10 = call i32 (i8*, ...) @__isoc99_scanf(i8* getelementptr inbounds ([3 x i8], [3 x i8]* @.str.1, i64 0, i64 0), i8* nonnull %5)
  br label %11

11:                                               ; preds = %46, %8
  %12 = phi i64 [ %47, %46 ], [ 0, %8 ]
  %13 = phi i64 [ %48, %46 ], [ 1, %8 ]
  %14 = getelementptr inbounds [100000 x i8], [100000 x i8]* %2, i64 0, i64 %12
  %15 = load i8, i8* %14, align 1, !tbaa !9
  switch i8 %15, label %18 [
    i8 0, label %49
    i8 49, label %16
  ]

16:                                               ; preds = %11
  %17 = add nuw i64 %12, 1
  br label %46

18:                                               ; preds = %11
  %19 = add nuw i64 %12, 1
  %20 = getelementptr inbounds [100000 x i8], [100000 x i8]* %2, i64 0, i64 %19
  %21 = load i8, i8* %20, align 1, !tbaa !9
  %22 = icmp eq i8 %21, 0
  br i1 %22, label %42, label %23

23:                                               ; preds = %18, %38
  %24 = phi i8 [ %39, %38 ], [ %15, %18 ]
  %25 = phi i64 [ %34, %38 ], [ %13, %18 ]
  %26 = phi i8 [ %36, %38 ], [ %21, %18 ]
  %27 = phi i8* [ %35, %38 ], [ %20, %18 ]
  %28 = phi i32 [ %33, %38 ], [ 1, %18 ]
  %29 = icmp eq i8 %26, %24
  br i1 %29, label %30, label %32

30:                                               ; preds = %23
  %31 = add nsw i32 %28, 1
  store i8 49, i8* %27, align 1, !tbaa !9
  br label %32

32:                                               ; preds = %23, %30
  %33 = phi i32 [ %31, %30 ], [ %28, %23 ]
  %34 = add i64 %25, 1
  %35 = getelementptr inbounds [100000 x i8], [100000 x i8]* %2, i64 0, i64 %34
  %36 = load i8, i8* %35, align 1, !tbaa !9
  %37 = icmp eq i8 %36, 0
  br i1 %37, label %40, label %38, !llvm.loop !10

38:                                               ; preds = %32
  %39 = load i8, i8* %14, align 1, !tbaa !9
  br label %23

40:                                               ; preds = %32
  %41 = icmp eq i32 %33, 1
  br i1 %41, label %42, label %46

42:                                               ; preds = %18, %40
  %43 = load i8, i8* %14, align 1, !tbaa !9
  %44 = sext i8 %43 to i32
  %45 = call i32 (i8*, ...) @printf(i8* nonnull dereferenceable(1) getelementptr inbounds ([4 x i8], [4 x i8]* @.str.2, i64 0, i64 0), i32 %44)
  br label %51

46:                                               ; preds = %16, %40
  %47 = phi i64 [ %17, %16 ], [ %19, %40 ]
  %48 = add nuw i64 %13, 1
  br label %11, !llvm.loop !12

49:                                               ; preds = %11
  %50 = call i32 (i8*, ...) @printf(i8* nonnull dereferenceable(1) getelementptr inbounds ([3 x i8], [3 x i8]* @.str.3, i64 0, i64 0))
  br label %51

51:                                               ; preds = %42, %49
  %52 = add nuw nsw i32 %9, 1
  %53 = load i32, i32* %1, align 4, !tbaa !5
  %54 = icmp slt i32 %9, %53
  br i1 %54, label %8, label %55, !llvm.loop !13

55:                                               ; preds = %51, %0
  %56 = load %struct._IO_FILE*, %struct._IO_FILE** @stdin, align 8, !tbaa !14
  %57 = call i32 @getc(%struct._IO_FILE* %56) #3
  %58 = load %struct._IO_FILE*, %struct._IO_FILE** @stdin, align 8, !tbaa !14
  %59 = call i32 @getc(%struct._IO_FILE* %58) #3
  %60 = load %struct._IO_FILE*, %struct._IO_FILE** @stdin, align 8, !tbaa !14
  %61 = call i32 @getc(%struct._IO_FILE* %60) #3
  %62 = load %struct._IO_FILE*, %struct._IO_FILE** @stdin, align 8, !tbaa !14
  %63 = call i32 @getc(%struct._IO_FILE* %62) #3
  %64 = load %struct._IO_FILE*, %struct._IO_FILE** @stdin, align 8, !tbaa !14
  %65 = call i32 @getc(%struct._IO_FILE* %64) #3
  call void @llvm.lifetime.end.p0i8(i64 100000, i8* nonnull %5) #3
  call void @llvm.lifetime.end.p0i8(i64 4, i8* nonnull %3) #3
  ret i32 0
}

; Function Attrs: argmemonly mustprogress nofree nosync nounwind willreturn
declare void @llvm.lifetime.start.p0i8(i64 immarg, i8* nocapture) #1

; Function Attrs: nofree nounwind
declare noundef i32 @__isoc99_scanf(i8* nocapture noundef readonly, ...) local_unnamed_addr #2

; Function Attrs: nofree nounwind
declare noundef i32 @printf(i8* nocapture noundef readonly, ...) local_unnamed_addr #2

; Function Attrs: argmemonly mustprogress nofree nosync nounwind willreturn
declare void @llvm.lifetime.end.p0i8(i64 immarg, i8* nocapture) #1

; Function Attrs: nofree nounwind
declare noundef i32 @getc(%struct._IO_FILE* nocapture noundef) local_unnamed_addr #2


!llvm.module.flags = !{!0, !1, !2, !3}
!llvm.ident = !{!4}

!0 = !{i32 1, !"wchar_size", i32 4}
!1 = !{i32 7, !"PIC Level", i32 2}
!2 = !{i32 7, !"PIE Level", i32 2}
!3 = !{i32 7, !"uwtable", i32 1}
!4 = !{!"clang version 13.0.0"}
!5 = !{!6, !6, i64 0}
!6 = !{!"int", !7, i64 0}
!7 = !{!"omnipotent char", !8, i64 0}
!8 = !{!"Simple C/C++ TBAA"}
!9 = !{!7, !7, i64 0}
!10 = distinct !{!10, !11}
!11 = !{!"llvm.loop.mustprogress"}
!12 = distinct !{!12, !11}
!13 = distinct !{!13, !11}
!14 = !{!15, !15, i64 0}
!15 = !{!"any pointer", !7, i64 0}
